target datalayout = "e-m:e-p270:32:32-p271:32:32-p272:64:64-i64:64-i128:128-f80:128-n8:16:32:64-S128"
target triple = "x86_64-pc-linux-gnu"

%struct.pmix_mca_base_framework_t = type { ptr, ptr, ptr, ptr, ptr, ptr, i32, i32, ptr, ptr, i32, i32, %struct.pmix_list_t, %struct.pmix_list_t }
%struct.pmix_list_t = type { %struct.pmix_object_t, %struct.pmix_list_item_t, i64 }
%struct.pmix_object_t = type { %union.pthread_mutex_t, ptr, i32, %struct.pmix_tma }
%union.pthread_mutex_t = type { %struct.__pthread_mutex_s }
%struct.__pthread_mutex_s = type { i32, i32, i32, i32, i32, i16, i16, %struct.__pthread_internal_list }
%struct.__pthread_internal_list = type { ptr, ptr }
%struct.pmix_tma = type { ptr, ptr, ptr, ptr, ptr, ptr, ptr, ptr }
%struct.pmix_list_item_t = type { %struct.pmix_object_t, ptr, ptr, i32 }
%struct.pmix_class_t = type { ptr, ptr, ptr, ptr, i32, i32, ptr, ptr, i64 }
%struct.pmix_output_desc_t = type { i8, i8, i32, i8, i32, ptr, ptr, i32, ptr, i32, i8, i8, i8, i8, ptr, i32, i32 }
%struct.prte_process_info_t = type { %struct.pmix_proc, %struct.pmix_proc, ptr, %struct.pmix_proc, i32, i32, i32, ptr, ptr, i32, i8, ptr, i16, ptr, ptr, i8, ptr, i8 }
%struct.pmix_proc = type { [256 x i8], i32 }
%struct.prte_iof_sink_t = type { %struct.pmix_list_item_t, %struct.pmix_proc, %struct.pmix_proc, i16, ptr, i8, i8, i8 }
%struct.prte_iof_write_event_t = type { %struct.pmix_list_item_t, i8, i8, ptr, %struct.timeval, i32, %struct.pmix_list_t }
%struct.timeval = type { i64, i64 }

@.str.14 = private unnamed_addr constant [21 x i8] c"pthread_mutex_lock()\00", align 1
@pmix_output_info = external global [0 x %struct.pmix_output_desc_t], align 8
@.str.15 = private unnamed_addr constant [45 x i8] c"%s iof: closing sink for process %s on fd %d\00", align 1
@prte_process_info = external global %struct.prte_process_info_t, align 8

; Function Attrs: inlinehint nounwind uwtable
define internal void @pmix_tma_free(ptr noundef %0, ptr noundef %1) #2 {
  %3 = alloca ptr, align 8
  %4 = alloca ptr, align 8
  store ptr %0, ptr %3, align 8, !tbaa !30
  store ptr %1, ptr %4, align 8, !tbaa !16
  %5 = load ptr, ptr %3, align 8, !tbaa !30
  %6 = icmp ne ptr null, %5
  br i1 %6, label %7, label %13

7:                                                ; preds = %2
  %8 = load ptr, ptr %3, align 8, !tbaa !30
  %9 = getelementptr inbounds nuw %struct.pmix_tma, ptr %8, i32 0, i32 5
  %10 = load ptr, ptr %9, align 8, !tbaa !47
  %11 = load ptr, ptr %3, align 8, !tbaa !30
  %12 = load ptr, ptr %4, align 8, !tbaa !16
  call void %10(ptr noundef %11, ptr noundef %12)
  br label %15

13:                                               ; preds = %2
  %14 = load ptr, ptr %4, align 8, !tbaa !16
  call void @free(ptr noundef %14) #11
  br label %15

15:                                               ; preds = %13, %7
  ret void
}

; Function Attrs: inlinehint nounwind uwtable
define internal void @pmix_obj_run_destructors(ptr noundef %0) #2 {
  %2 = alloca ptr, align 8
  %3 = alloca ptr, align 8
  store ptr %0, ptr %2, align 8, !tbaa !26
  call void @llvm.lifetime.start.p0(i64 8, ptr %3) #11
  %4 = load ptr, ptr %2, align 8, !tbaa !26
  %5 = getelementptr inbounds nuw %struct.pmix_object_t, ptr %4, i32 0, i32 1
  %6 = load ptr, ptr %5, align 8, !tbaa !35
  %7 = getelementptr inbounds nuw %struct.pmix_class_t, ptr %6, i32 0, i32 7
  %8 = load ptr, ptr %7, align 8, !tbaa !44
  store ptr %8, ptr %3, align 8, !tbaa !16
  br label %9

9:                                                ; preds = %13, %1
  %10 = load ptr, ptr %3, align 8, !tbaa !16
  %11 = load ptr, ptr %10, align 8, !tbaa !16
  %12 = icmp ne ptr null, %11
  br i1 %12, label %13, label %19

13:                                               ; preds = %9
  %14 = load ptr, ptr %3, align 8, !tbaa !16
  %15 = load ptr, ptr %14, align 8, !tbaa !16
  %16 = load ptr, ptr %2, align 8, !tbaa !26
  call void %15(ptr noundef %16)
  %17 = load ptr, ptr %3, align 8, !tbaa !16
  %18 = getelementptr inbounds nuw ptr, ptr %17, i32 1
  store ptr %18, ptr %3, align 8, !tbaa !16
  br label %9, !llvm.loop !45

19:                                               ; preds = %9
  call void @llvm.lifetime.end.p0(i64 8, ptr %3) #11
  ret void
}

; Function Attrs: alwaysinline nounwind uwtable
define internal i32 @pmix_obj_update(ptr noundef %0, i32 noundef %1) #5 {
  %3 = alloca ptr, align 8
  %4 = alloca i32, align 4
  %5 = alloca i32, align 4
  store ptr %0, ptr %3, align 8, !tbaa !26
  store i32 %1, ptr %4, align 4, !tbaa !3
  call void @llvm.lifetime.start.p0(i64 4, ptr %5) #11
  %6 = load ptr, ptr %3, align 8, !tbaa !26
  %7 = getelementptr inbounds nuw %struct.pmix_object_t, ptr %6, i32 0, i32 0
  %8 = call i32 @pthread_mutex_lock(ptr noundef %7) #11
  store i32 %8, ptr %5, align 4, !tbaa !3
  %9 = load i32, ptr %5, align 4, !tbaa !3
  %10 = icmp eq i32 %9, 35
  br i1 %10, label %11, label %14

11:                                               ; preds = %2
  %12 = load i32, ptr %5, align 4, !tbaa !3
  %13 = call ptr @__errno_location() #13
  store i32 %12, ptr %13, align 4, !tbaa !3
  call void @perror(ptr noundef @.str.14)
  call void @abort() #14
  unreachable

14:                                               ; preds = %2
  %15 = load i32, ptr %4, align 4, !tbaa !3
  %16 = load ptr, ptr %3, align 8, !tbaa !26
  %17 = getelementptr inbounds nuw %struct.pmix_object_t, ptr %16, i32 0, i32 2
  %18 = load i32, ptr %17, align 8, !tbaa !36
  %19 = add nsw i32 %18, %15
  store i32 %19, ptr %17, align 8, !tbaa !36
  store i32 %19, ptr %5, align 4, !tbaa !3
  %20 = load ptr, ptr %3, align 8, !tbaa !26
  %21 = getelementptr inbounds nuw %struct.pmix_object_t, ptr %20, i32 0, i32 0
  %22 = call i32 @pthread_mutex_unlock(ptr noundef %21) #11
  %23 = load i32, ptr %5, align 4, !tbaa !3
  call void @llvm.lifetime.end.p0(i64 4, ptr %5) #11
  ret i32 %23
}

; Function Attrs: nounwind uwtable
define internal void @prte_iof_base_sink_destruct(ptr noundef %0) #0 {
  %2 = alloca ptr, align 8
  %3 = alloca ptr, align 8
  store ptr %0, ptr %2, align 8, !tbaa !16
  %4 = load ptr, ptr %2, align 8, !tbaa !16
  %5 = getelementptr inbounds nuw %struct.prte_iof_sink_t, ptr %4, i32 0, i32 4
  %6 = load ptr, ptr %5, align 8, !tbaa !54
  %7 = icmp ne ptr null, %6
  br i1 %7, label %8, label %62

8:                                                ; preds = %1
  %9 = load i32, ptr getelementptr inbounds nuw (%struct.pmix_mca_base_framework_t, ptr @prte_iof_base_framework, i32 0, i32 11), align 4, !tbaa !60
  %10 = icmp sge i32 %9, 0
  br i1 %10, label %11, label %32

11:                                               ; preds = %8
  %12 = load i32, ptr getelementptr inbounds nuw (%struct.pmix_mca_base_framework_t, ptr @prte_iof_base_framework, i32 0, i32 11), align 4, !tbaa !60
  %13 = icmp slt i32 %12, 64
  br i1 %13, label %14, label %32

14:                                               ; preds = %11
  %15 = load i32, ptr getelementptr inbounds nuw (%struct.pmix_mca_base_framework_t, ptr @prte_iof_base_framework, i32 0, i32 11), align 4, !tbaa !60
  %16 = sext i32 %15 to i64
  %17 = getelementptr inbounds [0 x %struct.pmix_output_desc_t], ptr @pmix_output_info, i64 0, i64 %16
  %18 = getelementptr inbounds nuw %struct.pmix_output_desc_t, ptr %17, i32 0, i32 2
  %19 = load i32, ptr %18, align 4, !tbaa !64
  %20 = icmp sge i32 %19, 20
  br i1 %20, label %21, label %32

21:                                               ; preds = %14
  %22 = load i32, ptr getelementptr inbounds nuw (%struct.pmix_mca_base_framework_t, ptr @prte_iof_base_framework, i32 0, i32 11), align 4, !tbaa !60
  %23 = call ptr @prte_util_print_name_args(ptr noundef @prte_process_info)
  %24 = load ptr, ptr %2, align 8, !tbaa !16
  %25 = getelementptr inbounds nuw %struct.prte_iof_sink_t, ptr %24, i32 0, i32 1
  %26 = call ptr @prte_util_print_name_args(ptr noundef %25)
  %27 = load ptr, ptr %2, align 8, !tbaa !16
  %28 = getelementptr inbounds nuw %struct.prte_iof_sink_t, ptr %27, i32 0, i32 4
  %29 = load ptr, ptr %28, align 8, !tbaa !54
  %30 = getelementptr inbounds nuw %struct.prte_iof_write_event_t, ptr %29, i32 0, i32 5
  %31 = load i32, ptr %30, align 8, !tbaa !66
  call void (i32, ptr, ...) @pmix_output(i32 noundef %22, ptr noundef @.str.15, ptr noundef %23, ptr noundef %26, i32 noundef %31)
  br label %32

32:                                               ; preds = %21, %14, %11, %8
  br label %33

33:                                               ; preds = %32
  call void @llvm.lifetime.start.p0(i64 8, ptr %3) #11
  %34 = load ptr, ptr %2, align 8, !tbaa !16
  %35 = getelementptr inbounds nuw %struct.prte_iof_sink_t, ptr %34, i32 0, i32 4
  %36 = load ptr, ptr %35, align 8, !tbaa !54
  store ptr %36, ptr %3, align 8, !tbaa !26
  %37 = load ptr, ptr %3, align 8, !tbaa !26
  %38 = call i32 @pmix_obj_update(ptr noundef %37, i32 noundef -1)
  %39 = icmp eq i32 0, %38
  br i1 %39, label %40, label %60

40:                                               ; preds = %33
  %41 = load ptr, ptr %3, align 8, !tbaa !26
  call void @pmix_obj_run_destructors(ptr noundef %41)
  %42 = load ptr, ptr %3, align 8, !tbaa !26
  %43 = getelementptr inbounds nuw %struct.pmix_object_t, ptr %42, i32 0, i32 3
  %44 = getelementptr inbounds nuw %struct.pmix_tma, ptr %43, i32 0, i32 5
  %45 = load ptr, ptr %44, align 8, !tbaa !28
  %46 = icmp ne ptr null, %45
  br i1 %46, label %47, label %53

47:                                               ; preds = %40
  %48 = load ptr, ptr %3, align 8, !tbaa !26
  %49 = getelementptr inbounds nuw %struct.pmix_object_t, ptr %48, i32 0, i32 3
  %50 = load ptr, ptr %2, align 8, !tbaa !16
  %51 = getelementptr inbounds nuw %struct.prte_iof_sink_t, ptr %50, i32 0, i32 4
  %52 = load ptr, ptr %51, align 8, !tbaa !54
  call void @pmix_tma_free(ptr noundef %49, ptr noundef %52)
  br label %57

53:                                               ; preds = %40
  %54 = load ptr, ptr %2, align 8, !tbaa !16
  %55 = getelementptr inbounds nuw %struct.prte_iof_sink_t, ptr %54, i32 0, i32 4
  %56 = load ptr, ptr %55, align 8, !tbaa !54
  call void @free(ptr noundef %56) #11
  br label %57

57:                                               ; preds = %53, %47
  %58 = load ptr, ptr %2, align 8, !tbaa !16
  %59 = getelementptr inbounds nuw %struct.prte_iof_sink_t, ptr %58, i32 0, i32 4
  store ptr null, ptr %59, align 8, !tbaa !54
  br label %60

60:                                               ; preds = %57, %33
  call void @llvm.lifetime.end.p0(i64 8, ptr %3) #11
  br label %61

61:                                               ; preds = %60
  br label %62

62:                                               ; preds = %61, %1
  ret void
}