; Function Attrs: nounwind uwtable
define internal void @prte_iof_base_sink_destruct(ptr noundef %0) #0 {
  %2 = getelementptr inbounds nuw i8, ptr %0, i64 672
  %3 = load ptr, ptr %2, align 8, !tbaa !38
  %.not = icmp eq ptr %3, null
  br i1 %.not, label %46, label %4

4:                                                ; preds = %1
  %5 = load i32, ptr getelementptr inbounds nuw (i8, ptr @prte_iof_base_framework, i64 76), align 4, !tbaa !45
  %or.cond = icmp ult i32 %5, 64
  br i1 %or.cond, label %6, label %18

6:                                                ; preds = %4
  %7 = zext nneg i32 %5 to i64
  %8 = getelementptr inbounds nuw [0 x %struct.pmix_output_desc_t], ptr @pmix_output_info, i64 0, i64 %7, i32 2
  %9 = load i32, ptr %8, align 4, !tbaa !49
  %10 = icmp sgt i32 %9, 19
  br i1 %10, label %11, label %18

11:                                               ; preds = %6
  %12 = tail call ptr @prte_util_print_name_args(ptr noundef nonnull @prte_process_info) #12
  %13 = getelementptr inbounds nuw i8, ptr %0, i64 144
  %14 = tail call ptr @prte_util_print_name_args(ptr noundef nonnull %13) #12
  %15 = load ptr, ptr %2, align 8, !tbaa !38
  %16 = getelementptr inbounds nuw i8, ptr %15, i64 176
  %17 = load i32, ptr %16, align 8, !tbaa !51
  tail call void (i32, ptr, ...) @pmix_output(i32 noundef %5, ptr noundef nonnull @.str.15, ptr noundef %12, ptr noundef %14, i32 noundef %17) #12
  %.pre = load ptr, ptr %2, align 8, !tbaa !38
  br label %18

18:                                               ; preds = %4, %6, %11
  %19 = phi ptr [ %3, %4 ], [ %3, %6 ], [ %.pre, %11 ]
  %20 = tail call i32 @pthread_mutex_lock(ptr noundef %19) #12
  %21 = icmp eq i32 %20, 35
  br i1 %21, label %22, label %pmix_obj_update.exit

22:                                               ; preds = %18
  %23 = tail call ptr @__errno_location() #15
  store i32 35, ptr %23, align 4, !tbaa !3
  tail call void @perror(ptr noundef nonnull @.str.14) #16
  tail call void @abort() #17
  unreachable

pmix_obj_update.exit:                             ; preds = %18
  %24 = getelementptr inbounds nuw i8, ptr %19, i64 48
  %25 = load i32, ptr %24, align 8, !tbaa !19
  %26 = add nsw i32 %25, -1
  store i32 %26, ptr %24, align 8, !tbaa !19
  %27 = tail call i32 @pthread_mutex_unlock(ptr noundef %19) #12
  %28 = icmp eq i32 %26, 0
  br i1 %28, label %29, label %46

29:                                               ; preds = %pmix_obj_update.exit
  %30 = getelementptr inbounds nuw i8, ptr %19, i64 40
  %31 = load ptr, ptr %30, align 8, !tbaa !16
  %32 = getelementptr inbounds nuw i8, ptr %31, i64 48
  %33 = load ptr, ptr %32, align 8, !tbaa !29
  %34 = load ptr, ptr %33, align 8, !tbaa !21
  %.not6.i = icmp eq ptr %34, null
  br i1 %.not6.i, label %pmix_obj_run_destructors.exit, label %.lr.ph.i

.lr.ph.i:                                         ; preds = %29, %.lr.ph.i
  %35 = phi ptr [ %37, %.lr.ph.i ], [ %34, %29 ]
  %.07.i = phi ptr [ %36, %.lr.ph.i ], [ %33, %29 ]
  tail call void %35(ptr noundef %19) #12
  %36 = getelementptr inbounds nuw i8, ptr %.07.i, i64 8
  %37 = load ptr, ptr %36, align 8, !tbaa !21
  %.not.i = icmp eq ptr %37, null
  br i1 %.not.i, label %pmix_obj_run_destructors.exit, label %.lr.ph.i, !llvm.loop !30

pmix_obj_run_destructors.exit:                    ; preds = %.lr.ph.i, %29
  %38 = getelementptr inbounds nuw i8, ptr %19, i64 96
  %39 = load ptr, ptr %38, align 8, !tbaa !31
  %.not12 = icmp eq ptr %39, null
  br i1 %.not12, label %43, label %40

40:                                               ; preds = %pmix_obj_run_destructors.exit
  %41 = getelementptr inbounds nuw i8, ptr %19, i64 56
  %42 = load ptr, ptr %2, align 8, !tbaa !38
  tail call void %39(ptr noundef nonnull %41, ptr noundef %42) #12
  br label %45

43:                                               ; preds = %pmix_obj_run_destructors.exit
  %44 = load ptr, ptr %2, align 8, !tbaa !38
  tail call void @free(ptr noundef %44) #12
  br label %45

45:                                               ; preds = %43, %40
  store ptr null, ptr %2, align 8, !tbaa !38
  br label %46

46:                                               ; preds = %pmix_obj_update.exit, %45, %1
  ret void
}